; Function Attrs: null_pointer_is_valid sspstrong uwtable
define internal i32 @dissect_rnsap_L3_Information(ptr noundef %0, i32 noundef %1, ptr noundef %2, ptr noundef %3, i32 noundef %4) #0 {
  %6 = alloca ptr, align 8
  call void @llvm.lifetime.start.p0(i64 8, ptr nonnull %6) #4
  %7 = getelementptr inbounds nuw i8, ptr %2, i64 16
  %8 = load ptr, ptr %7, align 8
  %9 = getelementptr inbounds nuw i8, ptr %8, i64 408
  %10 = load ptr, ptr %9, align 8
  %11 = load i32, ptr @proto_rnsap, align 4
  %12 = tail call ptr @p_get_proto_data(ptr noundef %10, ptr noundef %8, i32 noundef %11, i32 noundef 0)
  %.not.i = icmp eq ptr %12, null
  br i1 %.not.i, label %13, label %rnsap_get_private_data.exit

13:                                               ; preds = %5
  %14 = load ptr, ptr %9, align 8
  %15 = tail call noalias dereferenceable_or_null(32) ptr @wmem_alloc0(ptr noundef %14, i64 noundef 32) #5
  store i32 65535, ptr %15, align 8
  %16 = getelementptr inbounds nuw i8, ptr %15, i64 8
  store i32 65535, ptr %16, align 8
  %17 = load ptr, ptr %9, align 8
  %18 = load i32, ptr @proto_rnsap, align 4
  tail call void @p_add_proto_data(ptr noundef %17, ptr noundef %8, i32 noundef %18, i32 noundef 0, ptr noundef %15)
  br label %rnsap_get_private_data.exit

rnsap_get_private_data.exit:                      ; preds = %5, %13
  %.0.i = phi ptr [ %12, %5 ], [ %15, %13 ]
  %19 = call i32 @dissect_per_bit_string(ptr noundef %0, i32 noundef %1, ptr noundef %2, ptr noundef %3, i32 noundef %4, i32 noundef -1, i32 noundef -1, i1 noundef zeroext false, ptr noundef null, i32 noundef 0, ptr noundef nonnull %6, ptr noundef null)
  %20 = load ptr, ptr %6, align 8
  %.not = icmp eq ptr %20, null
  br i1 %.not, label %.thread, label %21

21:                                               ; preds = %rnsap_get_private_data.exit
  %22 = load i32, ptr %.0.i, align 8
  switch i32 %22, label %.thread [
    i32 5, label %24
    i32 25, label %23
  ]

23:                                               ; preds = %21
  br label %24

24:                                               ; preds = %21, %23
  %.013.in = phi ptr [ @rrc_ul_ccch_handle, %23 ], [ @rrc_dl_ccch_handle, %21 ]
  %.013 = load ptr, ptr %.013.in, align 8
  %.not14 = icmp eq ptr %.013, null
  br i1 %.not14, label %.thread, label %25

25:                                               ; preds = %24
  %26 = load ptr, ptr %7, align 8
  %27 = call i32 @call_dissector(ptr noundef nonnull %.013, ptr noundef nonnull %20, ptr noundef %26, ptr noundef %3)
  br label %.thread

.thread:                                          ; preds = %21, %24, %25, %rnsap_get_private_data.exit
  call void @llvm.lifetime.end.p0(i64 8, ptr nonnull %6) #4
  ret i32 %19
}